; Function Attrs: mustprogress noreturn uwtable
define internal noundef float @_ZN12_GLOBAL__N_113unimplementedEiPKiPK9t_iparamsPA3_KfPA4_fPA3_fPK5t_pbcfPfN3gmx8ArrayRefIS5_EEP8t_fcdataP12t_disresdataP12t_oriresdataPi(i32 %0, ptr nocapture readnone %1, ptr nocapture readnone %2, ptr nocapture readnone %3, ptr nocapture readnone %4, ptr nocapture readnone %5, ptr nocapture readnone %6, float %7, ptr nocapture readnone %8, ptr nocapture noundef readnone byval(%"class.gmx::ArrayRef") align 8 %9, ptr nocapture readnone %10, ptr nocapture readnone %11, ptr nocapture readnone %12, ptr nocapture readnone %13) #13 personality ptr @__gxx_personality_v0 {
  %15 = alloca %"class.std::__cxx11::basic_string", align 8
  %16 = alloca %"class.std::allocator", align 1
  %17 = alloca %"class.std::filesystem::__cxx11::path", align 8
  call void @_ZNSaIcEC1Ev(ptr noundef nonnull align 1 dereferenceable(1) %16) #22
  %18 = invoke noundef ptr @_ZNSt7__cxx1112basic_stringIcSt11char_traitsIcESaIcEE13_M_local_dataEv(ptr noundef nonnull align 8 dereferenceable(32) %15)
          to label %.noexc unwind label %23

.noexc:                                           ; preds = %14
  invoke void @_ZNSt7__cxx1112basic_stringIcSt11char_traitsIcESaIcEE12_Alloc_hiderC1EPcRKS3_(ptr noundef nonnull align 8 dereferenceable(8) %15, ptr noundef %18, ptr noundef nonnull align 1 dereferenceable(1) %16)
          to label %.noexc5 unwind label %23

.noexc5:                                          ; preds = %.noexc
  invoke void @_ZNSt7__cxx1112basic_stringIcSt11char_traitsIcESaIcEE12_M_constructIPKcEEvT_S8_St20forward_iterator_tag(ptr noundef nonnull align 8 dereferenceable(32) %15, ptr noundef nonnull @.str.6, ptr noundef nonnull getelementptr inbounds ([45 x i8], ptr @.str.6, i64 0, i64 44))
          to label %_ZNSt7__cxx1112basic_stringIcSt11char_traitsIcESaIcEEC2IS3_EEPKcRKS3_.exit unwind label %19

19:                                               ; preds = %.noexc5
  %20 = landingpad { ptr, i32 }
          cleanup
  call void @_ZNSaIcED2Ev(ptr noundef nonnull align 1 dereferenceable(1) %15) #22
  br label %.body

_ZNSt7__cxx1112basic_stringIcSt11char_traitsIcESaIcEEC2IS3_EEPKcRKS3_.exit: ; preds = %.noexc5
  invoke void @_ZNSt10filesystem7__cxx114pathC2IA130_cS1_EERKT_NS1_6formatE(ptr noundef nonnull align 8 dereferenceable(40) %17, ptr noundef nonnull align 1 dereferenceable(130) @.str.7, i8 noundef zeroext 2)
          to label %21 unwind label %25

21:                                               ; preds = %_ZNSt7__cxx1112basic_stringIcSt11char_traitsIcESaIcEEC2IS3_EEPKcRKS3_.exit
  invoke void @_Z18gmx_error_functionPKcRKNSt7__cxx1112basic_stringIcSt11char_traitsIcESaIcEEERKNSt10filesystem7__cxx114pathEi(ptr noundef nonnull @.str.5, ptr noundef nonnull align 8 dereferenceable(32) %15, ptr noundef nonnull align 8 dereferenceable(40) %17, i32 noundef 2569) #24
          to label %22 unwind label %27

22:                                               ; preds = %21
  unreachable

23:                                               ; preds = %.noexc, %14
  %24 = landingpad { ptr, i32 }
          cleanup
  br label %.body

25:                                               ; preds = %_ZNSt7__cxx1112basic_stringIcSt11char_traitsIcESaIcEEC2IS3_EEPKcRKS3_.exit
  %26 = landingpad { ptr, i32 }
          cleanup
  br label %32

27:                                               ; preds = %21
  %28 = landingpad { ptr, i32 }
          cleanup
  %29 = getelementptr inbounds i8, ptr %17, i64 32
  %30 = load ptr, ptr %29, align 8
  %.not.i.i.i = icmp eq ptr %30, null
  br i1 %.not.i.i.i, label %_ZNSt10filesystem7__cxx114pathD2Ev.exit, label %31

31:                                               ; preds = %27
  call void @_ZNKSt10filesystem7__cxx114path5_List13_Impl_deleterclEPNS2_5_ImplE(ptr noundef nonnull align 1 dereferenceable(1) %29, ptr noundef nonnull %30) #22
  br label %_ZNSt10filesystem7__cxx114pathD2Ev.exit

_ZNSt10filesystem7__cxx114pathD2Ev.exit:          ; preds = %27, %31
  store ptr null, ptr %29, align 8
  call void @_ZNSt7__cxx1112basic_stringIcSt11char_traitsIcESaIcEED1Ev(ptr noundef nonnull align 8 dereferenceable(32) %17) #22
  br label %32

32:                                               ; preds = %_ZNSt10filesystem7__cxx114pathD2Ev.exit, %25
  %.pn = phi { ptr, i32 } [ %28, %_ZNSt10filesystem7__cxx114pathD2Ev.exit ], [ %26, %25 ]
  call void @_ZNSt7__cxx1112basic_stringIcSt11char_traitsIcESaIcEED1Ev(ptr noundef nonnull align 8 dereferenceable(32) %15) #22
  br label %.body

.body:                                            ; preds = %23, %19, %32
  %.pn.pn = phi { ptr, i32 } [ %.pn, %32 ], [ %24, %23 ], [ %20, %19 ]
  call void @_ZNSaIcED1Ev(ptr noundef nonnull align 1 dereferenceable(1) %16) #22
  resume { ptr, i32 } %.pn.pn
}